target datalayout = "e-m:e-p270:32:32-p271:32:32-p272:64:64-i64:64-i128:128-f80:128-n8:16:32:64-S128"
target triple = "x86_64-pc-linux-gnu"

%struct._xmlDoc = type { ptr, i32, ptr, ptr, ptr, ptr, ptr, ptr, ptr, i32, i32, ptr, ptr, ptr, ptr, ptr, ptr, ptr, ptr, i32, ptr, ptr, i32, i32 }
%struct._xmlNode = type { ptr, i32, ptr, ptr, ptr, ptr, ptr, ptr, ptr, ptr, ptr, ptr, ptr, ptr, i16, i16 }

@.str.3 = private unnamed_addr constant [90 x i8] c"Current node in traversal is not in the document. Please report this as a bug in php-src.\00", align 1

; Function Attrs: alwaysinline nounwind uwtable
define internal ptr @php_dom_next_in_tree_order(ptr noundef %0, ptr noundef %1) #3 {
  %3 = alloca ptr, align 8
  %4 = alloca ptr, align 8
  %5 = alloca ptr, align 8
  store ptr %0, ptr %4, align 8, !tbaa !19
  store ptr %1, ptr %5, align 8, !tbaa !19
  %6 = load ptr, ptr %4, align 8, !tbaa !19
  %7 = getelementptr inbounds nuw %struct._xmlNode, ptr %6, i32 0, i32 1
  %8 = load i32, ptr %7, align 8, !tbaa !20
  %9 = icmp eq i32 %8, 1
  br i1 %9, label %10, label %19

10:                                               ; preds = %2
  %11 = load ptr, ptr %4, align 8, !tbaa !19
  %12 = getelementptr inbounds nuw %struct._xmlNode, ptr %11, i32 0, i32 3
  %13 = load ptr, ptr %12, align 8, !tbaa !24
  %14 = icmp ne ptr %13, null
  br i1 %14, label %15, label %19

15:                                               ; preds = %10
  %16 = load ptr, ptr %4, align 8, !tbaa !19
  %17 = getelementptr inbounds nuw %struct._xmlNode, ptr %16, i32 0, i32 3
  %18 = load ptr, ptr %17, align 8, !tbaa !24
  store ptr %18, ptr %3, align 8
  br label %57

19:                                               ; preds = %10, %2
  %20 = load ptr, ptr %4, align 8, !tbaa !19
  %21 = getelementptr inbounds nuw %struct._xmlNode, ptr %20, i32 0, i32 6
  %22 = load ptr, ptr %21, align 8, !tbaa !25
  %23 = icmp ne ptr %22, null
  br i1 %23, label %24, label %28

24:                                               ; preds = %19
  %25 = load ptr, ptr %4, align 8, !tbaa !19
  %26 = getelementptr inbounds nuw %struct._xmlNode, ptr %25, i32 0, i32 6
  %27 = load ptr, ptr %26, align 8, !tbaa !25
  store ptr %27, ptr %3, align 8
  br label %57

28:                                               ; preds = %19
  br label %29

29:                                               ; preds = %48, %28
  %30 = load ptr, ptr %4, align 8, !tbaa !19
  %31 = getelementptr inbounds nuw %struct._xmlNode, ptr %30, i32 0, i32 5
  %32 = load ptr, ptr %31, align 8, !tbaa !26
  store ptr %32, ptr %4, align 8, !tbaa !19
  %33 = load ptr, ptr %4, align 8, !tbaa !19
  %34 = load ptr, ptr %5, align 8, !tbaa !19
  %35 = icmp eq ptr %33, %34
  br i1 %35, label %36, label %37

36:                                               ; preds = %29
  store ptr null, ptr %3, align 8
  br label %57

37:                                               ; preds = %29
  %38 = load ptr, ptr %4, align 8, !tbaa !19
  %39 = icmp eq ptr %38, null
  %40 = xor i1 %39, true
  %41 = xor i1 %40, true
  %42 = zext i1 %41 to i32
  %43 = sext i32 %42 to i64
  %44 = call i64 @llvm.expect.i64(i64 %43, i64 0)
  %45 = icmp ne i64 %44, 0
  br i1 %45, label %46, label %47

46:                                               ; preds = %37
  call void (ptr, ptr, ...) @zend_throw_error(ptr noundef null, ptr noundef @.str.3)
  store ptr null, ptr %3, align 8
  br label %57

47:                                               ; preds = %37
  br label %48

48:                                               ; preds = %47
  %49 = load ptr, ptr %4, align 8, !tbaa !19
  %50 = getelementptr inbounds nuw %struct._xmlNode, ptr %49, i32 0, i32 6
  %51 = load ptr, ptr %50, align 8, !tbaa !25
  %52 = icmp eq ptr %51, null
  br i1 %52, label %29, label %53

53:                                               ; preds = %48
  %54 = load ptr, ptr %4, align 8, !tbaa !19
  %55 = getelementptr inbounds nuw %struct._xmlNode, ptr %54, i32 0, i32 6
  %56 = load ptr, ptr %55, align 8, !tbaa !25
  store ptr %56, ptr %3, align 8
  br label %57

57:                                               ; preds = %53, %46, %36, %24, %15
  %58 = load ptr, ptr %3, align 8
  ret ptr %58
}

; Function Attrs: nounwind uwtable
define hidden void @dom_mark_namespaces_as_attributes_too(ptr noundef %0, ptr noundef %1) #0 {
  %3 = alloca ptr, align 8
  %4 = alloca ptr, align 8
  %5 = alloca ptr, align 8
  store ptr %0, ptr %3, align 8, !tbaa !4
  store ptr %1, ptr %4, align 8, !tbaa !9
  call void @llvm.lifetime.start.p0(i64 8, ptr %5) #14
  %6 = load ptr, ptr %4, align 8, !tbaa !9
  %7 = getelementptr inbounds nuw %struct._xmlDoc, ptr %6, i32 0, i32 3
  %8 = load ptr, ptr %7, align 8, !tbaa !11
  store ptr %8, ptr %5, align 8, !tbaa !19
  br label %9

9:                                                ; preds = %20, %2
  %10 = load ptr, ptr %5, align 8, !tbaa !19
  %11 = icmp ne ptr %10, null
  br i1 %11, label %12, label %23

12:                                               ; preds = %9
  %13 = load ptr, ptr %5, align 8, !tbaa !19
  %14 = getelementptr inbounds nuw %struct._xmlNode, ptr %13, i32 0, i32 1
  %15 = load i32, ptr %14, align 8, !tbaa !20
  %16 = icmp eq i32 %15, 1
  br i1 %16, label %17, label %20

17:                                               ; preds = %12
  %18 = load ptr, ptr %3, align 8, !tbaa !4
  %19 = load ptr, ptr %5, align 8, !tbaa !19
  call void @php_dom_ns_compat_mark_attribute_list(ptr noundef %18, ptr noundef %19)
  br label %20

20:                                               ; preds = %17, %12
  %21 = load ptr, ptr %5, align 8, !tbaa !19
  %22 = call ptr @php_dom_next_in_tree_order(ptr noundef %21, ptr noundef null)
  store ptr %22, ptr %5, align 8, !tbaa !19
  br label %9

23:                                               ; preds = %9
  call void @llvm.lifetime.end.p0(i64 8, ptr %5) #14
  ret void
}