; Function Attrs: nounwind uwtable
define hidden void @dom_mark_namespaces_as_attributes_too(ptr noundef %0, ptr noundef readonly captures(none) %1) local_unnamed_addr #0 {
  %3 = getelementptr inbounds nuw i8, ptr %1, i64 24
  %4 = load ptr, ptr %3, align 8, !tbaa !4
  %.not6 = icmp eq ptr %4, null
  br i1 %.not6, label %._crit_edge, label %.lr.ph

.lr.ph:                                           ; preds = %2, %.lr.ph.backedge
  %.07 = phi ptr [ %.07.be, %.lr.ph.backedge ], [ %4, %2 ]
  %5 = getelementptr inbounds nuw i8, ptr %.07, i64 8
  %6 = load i32, ptr %5, align 8, !tbaa !16
  %7 = icmp eq i32 %6, 1
  br i1 %7, label %8, label %.thread

8:                                                ; preds = %.lr.ph
  tail call void @php_dom_ns_compat_mark_attribute_list(ptr noundef %0, ptr noundef nonnull %.07) #12
  %.pr = load i32, ptr %5, align 8, !tbaa !16
  %9 = icmp eq i32 %.pr, 1
  br i1 %9, label %10, label %.thread

10:                                               ; preds = %8
  %11 = getelementptr inbounds nuw i8, ptr %.07, i64 24
  %12 = load ptr, ptr %11, align 8, !tbaa !20
  %.not.i = icmp eq ptr %12, null
  br i1 %.not.i, label %.thread, label %.lr.ph.backedge

.lr.ph.backedge:                                  ; preds = %18, %10, %.thread
  %.07.be = phi ptr [ %12, %10 ], [ %14, %.thread ], [ %20, %18 ]
  br label %.lr.ph

.thread:                                          ; preds = %.lr.ph, %10, %8
  %13 = getelementptr inbounds nuw i8, ptr %.07, i64 48
  %14 = load ptr, ptr %13, align 8, !tbaa !21
  %.not17.i = icmp eq ptr %14, null
  br i1 %.not17.i, label %.preheader, label %.lr.ph.backedge

.preheader:                                       ; preds = %.thread, %18
  %.012.i = phi ptr [ %16, %18 ], [ %.07, %.thread ]
  %15 = getelementptr inbounds nuw i8, ptr %.012.i, i64 40
  %16 = load ptr, ptr %15, align 8, !tbaa !22
  %17 = icmp eq ptr %16, null
  br i1 %17, label %._crit_edge, label %18

18:                                               ; preds = %.preheader
  %19 = getelementptr inbounds nuw i8, ptr %16, i64 48
  %20 = load ptr, ptr %19, align 8, !tbaa !21
  %21 = icmp eq ptr %20, null
  br i1 %21, label %.preheader, label %.lr.ph.backedge

._crit_edge:                                      ; preds = %.preheader, %2
  ret void
}